target datalayout = "e-m:e-p270:32:32-p271:32:32-p272:64:64-i64:64-i128:128-f80:128-n8:16:32:64-S128"
target triple = "x86_64-unknown-linux-gnu"

%"class.QuantLib::Date" = type { i64 }
%"class.boost::detail::shared_count" = type { ptr }
%"class.QuantLib::DayCounter" = type { %"class.boost::shared_ptr.15" }
%"class.boost::shared_ptr.15" = type { ptr, %"class.boost::detail::shared_count" }
%"class.QuantLib::MakeYoYInflationCapFloor" = type { i32, i64, %"class.QuantLib::Calendar", %"class.boost::shared_ptr.20", %"class.QuantLib::Period", double, i8, i8, %"class.QuantLib::Date", %"class.QuantLib::Period", %"class.QuantLib::DayCounter", i32, i32, double, %"class.QuantLib::Handle", %"class.boost::shared_ptr.22" }
%"class.QuantLib::Calendar" = type { %"class.boost::shared_ptr.16" }
%"class.boost::shared_ptr.16" = type { ptr, %"class.boost::detail::shared_count" }
%"class.boost::shared_ptr.20" = type { ptr, %"class.boost::detail::shared_count" }
%"class.QuantLib::Period" = type { i32, i32 }
%"class.QuantLib::Handle" = type { %"class.boost::shared_ptr.21" }
%"class.boost::shared_ptr.21" = type { ptr, %"class.boost::detail::shared_count" }
%"class.boost::shared_ptr.22" = type { ptr, %"class.boost::detail::shared_count" }
%"class.boost::detail::sp_counted_base" = type { ptr, i32, i32 }

; Function Attrs: mustprogress uwtable
define linkonce_odr void @_ZN5boost6detail15sp_counted_base12weak_releaseEv(ptr noundef nonnull align 8 dereferenceable(16) %this) #2 comdat align 2 {
entry:
  %this.addr = alloca ptr, align 8
  store ptr %this, ptr %this.addr, align 8, !tbaa !3
  %this1 = load ptr, ptr %this.addr, align 8
  %weak_count_ = getelementptr inbounds nuw %"class.boost::detail::sp_counted_base", ptr %this1, i32 0, i32 2
  %call = call noundef i32 @_ZN5boost6detail16atomic_decrementEPj(ptr noundef %weak_count_)
  %cmp = icmp eq i32 %call, 1
  br i1 %cmp, label %if.then, label %if.end

if.then:                                          ; preds = %entry
  %vtable = load ptr, ptr %this1, align 8, !tbaa !12
  %vfn = getelementptr inbounds ptr, ptr %vtable, i64 3
  %0 = load ptr, ptr %vfn, align 8
  call void %0(ptr noundef nonnull align 8 dereferenceable(16) %this1)
  br label %if.end

if.end:                                           ; preds = %if.then, %entry
  ret void
}

; Function Attrs: inlinehint mustprogress nounwind uwtable
define linkonce_odr noundef i32 @_ZN5boost6detail16atomic_decrementEPj(ptr noundef %pw) #5 comdat {
entry:
  %pw.addr = alloca ptr, align 8
  %.atomictmp = alloca i32, align 4
  %atomic-temp = alloca i32, align 4
  store ptr %pw, ptr %pw.addr, align 8, !tbaa !3
  %0 = load ptr, ptr %pw.addr, align 8, !tbaa !3
  store i32 1, ptr %.atomictmp, align 4, !tbaa !37
  %1 = load i32, ptr %.atomictmp, align 4
  %2 = atomicrmw sub ptr %0, i32 %1 acq_rel, align 4
  store i32 %2, ptr %atomic-temp, align 4
  %3 = load i32, ptr %atomic-temp, align 4, !tbaa !37
  ret i32 %3
}

; Function Attrs: inlinehint mustprogress nounwind uwtable
define linkonce_odr void @_ZN5boost6detail16atomic_incrementEPj(ptr noundef %pw) #5 comdat {
entry:
  %pw.addr = alloca ptr, align 8
  %.atomictmp = alloca i32, align 4
  %atomic-temp = alloca i32, align 4
  store ptr %pw, ptr %pw.addr, align 8, !tbaa !3
  %0 = load ptr, ptr %pw.addr, align 8, !tbaa !3
  store i32 1, ptr %.atomictmp, align 4, !tbaa !37
  %1 = load i32, ptr %.atomictmp, align 4
  %2 = atomicrmw add ptr %0, i32 %1 monotonic, align 4
  store i32 %2, ptr %atomic-temp, align 4
  ret void
}

; Function Attrs: mustprogress uwtable
define linkonce_odr void @_ZN5boost6detail15sp_counted_base7releaseEv(ptr noundef nonnull align 8 dereferenceable(16) %this) #2 comdat align 2 {
entry:
  %this.addr = alloca ptr, align 8
  store ptr %this, ptr %this.addr, align 8, !tbaa !3
  %this1 = load ptr, ptr %this.addr, align 8
  %use_count_ = getelementptr inbounds nuw %"class.boost::detail::sp_counted_base", ptr %this1, i32 0, i32 1
  %call = call noundef i32 @_ZN5boost6detail16atomic_decrementEPj(ptr noundef %use_count_)
  %cmp = icmp eq i32 %call, 1
  br i1 %cmp, label %if.then, label %if.end

if.then:                                          ; preds = %entry
  %vtable = load ptr, ptr %this1, align 8, !tbaa !12
  %vfn = getelementptr inbounds ptr, ptr %vtable, i64 2
  %0 = load ptr, ptr %vfn, align 8
  call void %0(ptr noundef nonnull align 8 dereferenceable(16) %this1)
  call void @_ZN5boost6detail15sp_counted_base12weak_releaseEv(ptr noundef nonnull align 8 dereferenceable(16) %this1)
  br label %if.end

if.end:                                           ; preds = %if.then, %entry
  ret void
}

; Function Attrs: mustprogress uwtable
define linkonce_odr void @_ZN5boost6detail15sp_counted_base12add_ref_copyEv(ptr noundef nonnull align 8 dereferenceable(16) %this) #2 comdat align 2 {
entry:
  %this.addr = alloca ptr, align 8
  store ptr %this, ptr %this.addr, align 8, !tbaa !3
  %this1 = load ptr, ptr %this.addr, align 8
  %use_count_ = getelementptr inbounds nuw %"class.boost::detail::sp_counted_base", ptr %this1, i32 0, i32 1
  call void @_ZN5boost6detail16atomic_incrementEPj(ptr noundef %use_count_)
  ret void
}

; Function Attrs: mustprogress nounwind uwtable
define linkonce_odr void @_ZN5boost6detail12shared_countD2Ev(ptr noundef nonnull align 8 dereferenceable(8) %this) unnamed_addr #1 comdat align 2 personality ptr @__gxx_personality_v0 {
entry:
  %this.addr = alloca ptr, align 8
  store ptr %this, ptr %this.addr, align 8, !tbaa !3
  %this1 = load ptr, ptr %this.addr, align 8
  %pi_ = getelementptr inbounds nuw %"class.boost::detail::shared_count", ptr %this1, i32 0, i32 0
  %0 = load ptr, ptr %pi_, align 8, !tbaa !117
  %cmp = icmp ne ptr %0, null
  br i1 %cmp, label %if.then, label %if.end

if.then:                                          ; preds = %entry
  %pi_2 = getelementptr inbounds nuw %"class.boost::detail::shared_count", ptr %this1, i32 0, i32 0
  %1 = load ptr, ptr %pi_2, align 8, !tbaa !117
  invoke void @_ZN5boost6detail15sp_counted_base7releaseEv(ptr noundef nonnull align 8 dereferenceable(16) %1)
          to label %invoke.cont unwind label %terminate.lpad

invoke.cont:                                      ; preds = %if.then
  br label %if.end

if.end:                                           ; preds = %invoke.cont, %entry
  ret void

terminate.lpad:                                   ; preds = %if.then
  %2 = landingpad { ptr, i32 }
          catch ptr null
  %3 = extractvalue { ptr, i32 } %2, 0
  call void @__clang_call_terminate(ptr %3) #19
  unreachable
}

; Function Attrs: mustprogress nounwind uwtable
define linkonce_odr void @_ZN5boost6detail12shared_count4swapERS1_(ptr noundef nonnull align 8 dereferenceable(8) %this, ptr noundef nonnull align 8 dereferenceable(8) %r) #1 comdat align 2 {
entry:
  %this.addr = alloca ptr, align 8
  %r.addr = alloca ptr, align 8
  %tmp = alloca ptr, align 8
  store ptr %this, ptr %this.addr, align 8, !tbaa !3
  store ptr %r, ptr %r.addr, align 8, !tbaa !3
  %this1 = load ptr, ptr %this.addr, align 8
  call void @llvm.lifetime.start.p0(i64 8, ptr %tmp) #12
  %0 = load ptr, ptr %r.addr, align 8, !tbaa !3
  %pi_ = getelementptr inbounds nuw %"class.boost::detail::shared_count", ptr %0, i32 0, i32 0
  %1 = load ptr, ptr %pi_, align 8, !tbaa !117
  store ptr %1, ptr %tmp, align 8, !tbaa !3
  %pi_2 = getelementptr inbounds nuw %"class.boost::detail::shared_count", ptr %this1, i32 0, i32 0
  %2 = load ptr, ptr %pi_2, align 8, !tbaa !117
  %3 = load ptr, ptr %r.addr, align 8, !tbaa !3
  %pi_3 = getelementptr inbounds nuw %"class.boost::detail::shared_count", ptr %3, i32 0, i32 0
  store ptr %2, ptr %pi_3, align 8, !tbaa !117
  %4 = load ptr, ptr %tmp, align 8, !tbaa !3
  %pi_4 = getelementptr inbounds nuw %"class.boost::detail::shared_count", ptr %this1, i32 0, i32 0
  store ptr %4, ptr %pi_4, align 8, !tbaa !117
  call void @llvm.lifetime.end.p0(i64 8, ptr %tmp) #12
  ret void
}

; Function Attrs: inlinehint mustprogress nounwind uwtable
define linkonce_odr void @_ZSt4swapIPN8QuantLib13PricingEngineEENSt9enable_ifIXsr6__and_ISt6__not_ISt15__is_tuple_likeIT_EESt21is_move_constructibleIS6_ESt18is_move_assignableIS6_EEE5valueEvE4typeERS6_SF_(ptr noundef nonnull align 8 dereferenceable(8) %__a, ptr noundef nonnull align 8 dereferenceable(8) %__b) #5 comdat {
entry:
  %__a.addr = alloca ptr, align 8
  %__b.addr = alloca ptr, align 8
  %__tmp = alloca ptr, align 8
  store ptr %__a, ptr %__a.addr, align 8, !tbaa !3
  store ptr %__b, ptr %__b.addr, align 8, !tbaa !3
  call void @llvm.lifetime.start.p0(i64 8, ptr %__tmp) #12
  %0 = load ptr, ptr %__a.addr, align 8, !tbaa !3
  %1 = load ptr, ptr %0, align 8, !tbaa !3
  store ptr %1, ptr %__tmp, align 8, !tbaa !3
  %2 = load ptr, ptr %__b.addr, align 8, !tbaa !3
  %3 = load ptr, ptr %2, align 8, !tbaa !3
  %4 = load ptr, ptr %__a.addr, align 8, !tbaa !3
  store ptr %3, ptr %4, align 8, !tbaa !3
  %5 = load ptr, ptr %__tmp, align 8, !tbaa !3
  %6 = load ptr, ptr %__b.addr, align 8, !tbaa !3
  store ptr %5, ptr %6, align 8, !tbaa !3
  call void @llvm.lifetime.end.p0(i64 8, ptr %__tmp) #12
  ret void
}

; Function Attrs: mustprogress nounwind uwtable
define linkonce_odr void @_ZN5boost6detail12shared_countC2ERKS1_(ptr noundef nonnull align 8 dereferenceable(8) %this, ptr noundef nonnull align 8 dereferenceable(8) %r) unnamed_addr #1 comdat align 2 personality ptr @__gxx_personality_v0 {
entry:
  %this.addr = alloca ptr, align 8
  %r.addr = alloca ptr, align 8
  store ptr %this, ptr %this.addr, align 8, !tbaa !3
  store ptr %r, ptr %r.addr, align 8, !tbaa !3
  %this1 = load ptr, ptr %this.addr, align 8
  %pi_ = getelementptr inbounds nuw %"class.boost::detail::shared_count", ptr %this1, i32 0, i32 0
  %0 = load ptr, ptr %r.addr, align 8, !tbaa !3
  %pi_2 = getelementptr inbounds nuw %"class.boost::detail::shared_count", ptr %0, i32 0, i32 0
  %1 = load ptr, ptr %pi_2, align 8, !tbaa !117
  store ptr %1, ptr %pi_, align 8, !tbaa !117
  %pi_3 = getelementptr inbounds nuw %"class.boost::detail::shared_count", ptr %this1, i32 0, i32 0
  %2 = load ptr, ptr %pi_3, align 8, !tbaa !117
  %cmp = icmp ne ptr %2, null
  br i1 %cmp, label %if.then, label %if.end

if.then:                                          ; preds = %entry
  %pi_4 = getelementptr inbounds nuw %"class.boost::detail::shared_count", ptr %this1, i32 0, i32 0
  %3 = load ptr, ptr %pi_4, align 8, !tbaa !117
  invoke void @_ZN5boost6detail15sp_counted_base12add_ref_copyEv(ptr noundef nonnull align 8 dereferenceable(16) %3)
          to label %invoke.cont unwind label %terminate.lpad

invoke.cont:                                      ; preds = %if.then
  br label %if.end

if.end:                                           ; preds = %invoke.cont, %entry
  ret void

terminate.lpad:                                   ; preds = %if.then
  %4 = landingpad { ptr, i32 }
          catch ptr null
  %5 = extractvalue { ptr, i32 } %4, 0
  call void @__clang_call_terminate(ptr %5) #19
  unreachable
}

; Function Attrs: inlinehint mustprogress nounwind uwtable
define linkonce_odr void @_ZN5boost10shared_ptrIN8QuantLib13PricingEngineEED2Ev(ptr noundef nonnull align 8 dereferenceable(16) %this) unnamed_addr #5 comdat align 2 {
entry:
  %this.addr = alloca ptr, align 8
  store ptr %this, ptr %this.addr, align 8, !tbaa !3
  %this1 = load ptr, ptr %this.addr, align 8
  %pn = getelementptr inbounds nuw %"class.boost::shared_ptr.22", ptr %this1, i32 0, i32 1
  call void @_ZN5boost6detail12shared_countD2Ev(ptr noundef nonnull align 8 dereferenceable(8) %pn) #12
  ret void
}

; Function Attrs: mustprogress nounwind uwtable
define linkonce_odr void @_ZN5boost10shared_ptrIN8QuantLib13PricingEngineEE4swapERS3_(ptr noundef nonnull align 8 dereferenceable(16) %this, ptr noundef nonnull align 8 dereferenceable(16) %other) #1 comdat align 2 {
entry:
  %this.addr = alloca ptr, align 8
  %other.addr = alloca ptr, align 8
  store ptr %this, ptr %this.addr, align 8, !tbaa !3
  store ptr %other, ptr %other.addr, align 8, !tbaa !3
  %this1 = load ptr, ptr %this.addr, align 8
  %px = getelementptr inbounds nuw %"class.boost::shared_ptr.22", ptr %this1, i32 0, i32 0
  %0 = load ptr, ptr %other.addr, align 8, !tbaa !3
  %px2 = getelementptr inbounds nuw %"class.boost::shared_ptr.22", ptr %0, i32 0, i32 0
  call void @_ZSt4swapIPN8QuantLib13PricingEngineEENSt9enable_ifIXsr6__and_ISt6__not_ISt15__is_tuple_likeIT_EESt21is_move_constructibleIS6_ESt18is_move_assignableIS6_EEE5valueEvE4typeERS6_SF_(ptr noundef nonnull align 8 dereferenceable(8) %px, ptr noundef nonnull align 8 dereferenceable(8) %px2) #12
  %pn = getelementptr inbounds nuw %"class.boost::shared_ptr.22", ptr %this1, i32 0, i32 1
  %1 = load ptr, ptr %other.addr, align 8, !tbaa !3
  %pn3 = getelementptr inbounds nuw %"class.boost::shared_ptr.22", ptr %1, i32 0, i32 1
  call void @_ZN5boost6detail12shared_count4swapERS1_(ptr noundef nonnull align 8 dereferenceable(8) %pn, ptr noundef nonnull align 8 dereferenceable(8) %pn3) #12
  ret void
}

; Function Attrs: mustprogress nounwind uwtable
define linkonce_odr void @_ZN5boost10shared_ptrIN8QuantLib13PricingEngineEEC2ERKS3_(ptr noundef nonnull align 8 dereferenceable(16) %this, ptr noundef nonnull align 8 dereferenceable(16) %r) unnamed_addr #1 comdat align 2 {
entry:
  %this.addr = alloca ptr, align 8
  %r.addr = alloca ptr, align 8
  store ptr %this, ptr %this.addr, align 8, !tbaa !3
  store ptr %r, ptr %r.addr, align 8, !tbaa !3
  %this1 = load ptr, ptr %this.addr, align 8
  %px = getelementptr inbounds nuw %"class.boost::shared_ptr.22", ptr %this1, i32 0, i32 0
  %0 = load ptr, ptr %r.addr, align 8, !tbaa !3
  %px2 = getelementptr inbounds nuw %"class.boost::shared_ptr.22", ptr %0, i32 0, i32 0
  %1 = load ptr, ptr %px2, align 8, !tbaa !50
  store ptr %1, ptr %px, align 8, !tbaa !50
  %pn = getelementptr inbounds nuw %"class.boost::shared_ptr.22", ptr %this1, i32 0, i32 1
  %2 = load ptr, ptr %r.addr, align 8, !tbaa !3
  %pn3 = getelementptr inbounds nuw %"class.boost::shared_ptr.22", ptr %2, i32 0, i32 1
  call void @_ZN5boost6detail12shared_countC2ERKS1_(ptr noundef nonnull align 8 dereferenceable(8) %pn, ptr noundef nonnull align 8 dereferenceable(8) %pn3) #12
  ret void
}

; Function Attrs: mustprogress nounwind uwtable
define linkonce_odr noundef nonnull align 8 dereferenceable(16) ptr @_ZN5boost10shared_ptrIN8QuantLib13PricingEngineEEaSERKS3_(ptr noundef nonnull align 8 dereferenceable(16) %this, ptr noundef nonnull align 8 dereferenceable(16) %r) #1 comdat align 2 {
entry:
  %this.addr = alloca ptr, align 8
  %r.addr = alloca ptr, align 8
  %ref.tmp = alloca %"class.boost::shared_ptr.22", align 8
  store ptr %this, ptr %this.addr, align 8, !tbaa !3
  store ptr %r, ptr %r.addr, align 8, !tbaa !3
  %this1 = load ptr, ptr %this.addr, align 8
  call void @llvm.lifetime.start.p0(i64 16, ptr %ref.tmp) #12
  %0 = load ptr, ptr %r.addr, align 8, !tbaa !3
  call void @_ZN5boost10shared_ptrIN8QuantLib13PricingEngineEEC2ERKS3_(ptr noundef nonnull align 8 dereferenceable(16) %ref.tmp, ptr noundef nonnull align 8 dereferenceable(16) %0) #12
  call void @_ZN5boost10shared_ptrIN8QuantLib13PricingEngineEE4swapERS3_(ptr noundef nonnull align 8 dereferenceable(16) %ref.tmp, ptr noundef nonnull align 8 dereferenceable(16) %this1) #12
  call void @_ZN5boost10shared_ptrIN8QuantLib13PricingEngineEED2Ev(ptr noundef nonnull align 8 dereferenceable(16) %ref.tmp) #12
  call void @llvm.lifetime.end.p0(i64 16, ptr %ref.tmp) #12
  ret ptr %this1
}

; Function Attrs: mustprogress nounwind uwtable
define noundef nonnull align 8 dereferenceable(152) ptr @_ZN8QuantLib24MakeYoYInflationCapFloor17withPricingEngineERKN5boost10shared_ptrINS_13PricingEngineEEE(ptr noundef nonnull align 8 dereferenceable(152) %this, ptr noundef nonnull align 8 dereferenceable(16) %engine) #1 align 2 {
entry:
  %this.addr = alloca ptr, align 8
  %engine.addr = alloca ptr, align 8
  store ptr %this, ptr %this.addr, align 8, !tbaa !3
  store ptr %engine, ptr %engine.addr, align 8, !tbaa !3
  %this1 = load ptr, ptr %this.addr, align 8
  %0 = load ptr, ptr %engine.addr, align 8, !tbaa !3
  %engine_ = getelementptr inbounds nuw %"class.QuantLib::MakeYoYInflationCapFloor", ptr %this1, i32 0, i32 15
  %call = call noundef nonnull align 8 dereferenceable(16) ptr @_ZN5boost10shared_ptrIN8QuantLib13PricingEngineEEaSERKS3_(ptr noundef nonnull align 8 dereferenceable(16) %engine_, ptr noundef nonnull align 8 dereferenceable(16) %0) #12
  ret ptr %this1
}